target datalayout = "e-m:e-p270:32:32-p271:32:32-p272:64:64-i64:64-i128:128-f80:128-n8:16:32:64-S128"
target triple = "x86_64-pc-linux-gnu"

%"class.std::type_info" = type { ptr, ptr }

@.str.16 = private unnamed_addr constant [11 x i8] c"nanobind::\00", align 1

; Function Attrs: mustprogress nounwind uwtable
define internal void @_ZN8nanobind6detailL6strexcEPcPKc(ptr noundef %0, ptr noundef %1) #8 {
  %3 = alloca ptr, align 8
  %4 = alloca ptr, align 8
  %5 = alloca i64, align 8
  %6 = alloca i32, align 4
  %7 = alloca ptr, align 8
  store ptr %0, ptr %3, align 8
  store ptr %1, ptr %4, align 8
  call void @llvm.lifetime.start.p0(i64 8, ptr %5) #22
  %8 = load ptr, ptr %4, align 8
  %9 = call i64 @strlen(ptr noundef %8) #26
  store i64 %9, ptr %5, align 8
  %10 = load i64, ptr %5, align 8
  %11 = icmp eq i64 %10, 0
  br i1 %11, label %12, label %13

12:                                               ; preds = %2
  store i32 1, ptr %6, align 4
  br label %31

13:                                               ; preds = %2
  call void @llvm.lifetime.start.p0(i64 8, ptr %7) #22
  %14 = load ptr, ptr %3, align 8
  store ptr %14, ptr %7, align 8
  br label %15

15:                                               ; preds = %20, %13
  %16 = load ptr, ptr %7, align 8
  %17 = load ptr, ptr %4, align 8
  %18 = call noundef ptr @strstr(ptr noundef %16, ptr noundef %17) #26
  store ptr %18, ptr %7, align 8
  %19 = icmp ne ptr %18, null
  br i1 %19, label %20, label %30

20:                                               ; preds = %15
  %21 = load ptr, ptr %7, align 8
  %22 = load ptr, ptr %7, align 8
  %23 = load i64, ptr %5, align 8
  %24 = getelementptr inbounds nuw i8, ptr %22, i64 %23
  %25 = load ptr, ptr %7, align 8
  %26 = load i64, ptr %5, align 8
  %27 = getelementptr inbounds nuw i8, ptr %25, i64 %26
  %28 = call i64 @strlen(ptr noundef %27) #26
  %29 = add i64 %28, 1
  call void @llvm.memmove.p0.p0.i64(ptr align 1 %21, ptr align 1 %24, i64 %29, i1 false)
  br label %15, !llvm.loop !42

30:                                               ; preds = %15
  call void @llvm.lifetime.end.p0(i64 8, ptr %7) #22
  store i32 0, ptr %6, align 4
  br label %31

31:                                               ; preds = %30, %12
  call void @llvm.lifetime.end.p0(i64 8, ptr %5) #22
  %32 = load i32, ptr %6, align 4
  switch i32 %32, label %34 [
    i32 0, label %33
    i32 1, label %33
  ]

33:                                               ; preds = %31, %31
  ret void

34:                                               ; preds = %31
  unreachable
}

; Function Attrs: mustprogress nounwind uwtable
define linkonce_odr noundef ptr @_ZNKSt9type_info4nameEv(ptr noundef nonnull align 8 dereferenceable(16) %0) #8 comdat align 2 {
  %2 = alloca ptr, align 8
  store ptr %0, ptr %2, align 8
  %3 = load ptr, ptr %2, align 8
  %4 = getelementptr inbounds nuw %"class.std::type_info", ptr %3, i32 0, i32 1
  %5 = load ptr, ptr %4, align 8
  %6 = getelementptr inbounds i8, ptr %5, i64 0
  %7 = load i8, ptr %6, align 1
  %8 = sext i8 %7 to i32
  %9 = icmp eq i32 %8, 42
  br i1 %9, label %10, label %14

10:                                               ; preds = %1
  %11 = getelementptr inbounds nuw %"class.std::type_info", ptr %3, i32 0, i32 1
  %12 = load ptr, ptr %11, align 8
  %13 = getelementptr inbounds i8, ptr %12, i64 1
  br label %17

14:                                               ; preds = %1
  %15 = getelementptr inbounds nuw %"class.std::type_info", ptr %3, i32 0, i32 1
  %16 = load ptr, ptr %15, align 8
  br label %17

17:                                               ; preds = %14, %10
  %18 = phi ptr [ %13, %10 ], [ %16, %14 ]
  ret ptr %18
}

; Function Attrs: mustprogress noinline uwtable
define hidden noundef ptr @_ZN8nanobind6detail9type_nameEPKSt9type_info(ptr noundef %0) #15 {
  %2 = alloca ptr, align 8
  %3 = alloca ptr, align 8
  %4 = alloca i32, align 4
  %5 = alloca ptr, align 8
  store ptr %0, ptr %2, align 8
  call void @llvm.lifetime.start.p0(i64 8, ptr %3) #22
  %6 = load ptr, ptr %2, align 8
  %7 = call noundef ptr @_ZNKSt9type_info4nameEv(ptr noundef nonnull align 8 dereferenceable(16) %6) #22
  store ptr %7, ptr %3, align 8
  call void @llvm.lifetime.start.p0(i64 4, ptr %4) #22
  store i32 0, ptr %4, align 4
  call void @llvm.lifetime.start.p0(i64 8, ptr %5) #22
  %8 = load ptr, ptr %3, align 8
  %9 = call ptr @__cxa_demangle(ptr noundef %8, ptr noundef null, ptr noundef null, ptr noundef %4)
  store ptr %9, ptr %5, align 8
  %10 = load ptr, ptr %5, align 8
  call void @_ZN8nanobind6detailL6strexcEPcPKc(ptr noundef %10, ptr noundef @.str.16)
  %11 = load ptr, ptr %5, align 8
  call void @llvm.lifetime.end.p0(i64 8, ptr %5) #22
  call void @llvm.lifetime.end.p0(i64 4, ptr %4) #22
  call void @llvm.lifetime.end.p0(i64 8, ptr %3) #22
  ret ptr %11
}