; Function Attrs: mustprogress noinline uwtable
define hidden noundef ptr @_ZN8nanobind6detail9type_nameEPKSt9type_info(ptr noundef readonly captures(none) %0) local_unnamed_addr #14 {
  %2 = alloca i32, align 4
  %3 = getelementptr inbounds nuw i8, ptr %0, i64 8
  %4 = load ptr, ptr %3, align 8
  %5 = load i8, ptr %4, align 1
  %6 = icmp eq i8 %5, 42
  %.idx.i = zext i1 %6 to i64
  %7 = getelementptr inbounds nuw i8, ptr %4, i64 %.idx.i
  call void @llvm.lifetime.start.p0(i64 4, ptr nonnull %2) #25
  store i32 0, ptr %2, align 4
  %8 = call ptr @__cxa_demangle(ptr noundef nonnull %7, ptr noundef null, ptr noundef null, ptr noundef nonnull %2)
  %9 = call noundef ptr @strstr(ptr noundef nonnull dereferenceable(1) %8, ptr noundef nonnull dereferenceable(1) @.str.16) #28
  %.not1.i = icmp eq ptr %9, null
  br i1 %.not1.i, label %_ZN8nanobind6detailL6strexcEPcPKc.exit, label %.lr.ph.i

.lr.ph.i:                                         ; preds = %1, %.lr.ph.i
  %10 = phi ptr [ %14, %.lr.ph.i ], [ %9, %1 ]
  %11 = getelementptr inbounds nuw i8, ptr %10, i64 10
  %12 = call i64 @strlen(ptr noundef nonnull dereferenceable(1) %11) #28
  %13 = add i64 %12, 1
  call void @llvm.memmove.p0.p0.i64(ptr nonnull align 1 %10, ptr nonnull align 1 %11, i64 %13, i1 false)
  %14 = call noundef ptr @strstr(ptr noundef nonnull dereferenceable(1) %10, ptr noundef nonnull dereferenceable(1) @.str.16) #28
  %.not.i = icmp eq ptr %14, null
  br i1 %.not.i, label %_ZN8nanobind6detailL6strexcEPcPKc.exit, label %.lr.ph.i, !llvm.loop !58

_ZN8nanobind6detailL6strexcEPcPKc.exit:           ; preds = %.lr.ph.i, %1
  call void @llvm.lifetime.end.p0(i64 4, ptr nonnull %2) #25
  ret ptr %8
}